target datalayout = "e-m:e-p270:32:32-p271:32:32-p272:64:64-i64:64-i128:128-f80:128-n8:16:32:64-S128"
target triple = "x86_64-unknown-linux-gnu"

%struct.VncState = type { i64, ptr, ptr, i32, i32, [2048 x [3 x i64]], ptr, ptr, i32, i32, i32, i32, i32, i32, i32, i32, i64, i64, i32, i32, i32, i32, i32, i32, [16 x i8], ptr, i8, i8, ptr, i64, i64, %struct.Buffer, %struct.Buffer, ptr, %struct.PixelFormat, i32, i8, ptr, %struct.audsettings, ptr, i64, i8, %struct.QemuMutex, ptr, %struct.Buffer, ptr, %struct.VncZlib, %struct.VncHextile, ptr, %struct.VncZywrle, %struct.Notifier, %struct.QemuClipboardPeer, ptr, i32, %union.anon }
%struct.PixelFormat = type { i8, i8, i8, i32, i32, i32, i32, i8, i8, i8, i8, i8, i8, i8, i8, i8, i8, i8, i8 }
%struct.audsettings = type { i32, i32, i32, i32 }
%struct.QemuMutex = type { %union.pthread_mutex_t, i8 }
%union.pthread_mutex_t = type { %struct.__pthread_mutex_s }
%struct.__pthread_mutex_s = type { i32, i32, i32, i32, i32, i16, i16, %struct.__pthread_internal_list }
%struct.__pthread_internal_list = type { ptr, ptr }
%struct.Buffer = type { ptr, i64, i64, i64, ptr }
%struct.VncZlib = type { %struct.Buffer, %struct.Buffer, %struct.z_stream_s, i32 }
%struct.z_stream_s = type { ptr, i32, i64, ptr, i32, i64, ptr, ptr, ptr, ptr, ptr, i32, i64, i64 }
%struct.VncHextile = type { ptr }
%struct.VncZywrle = type { [4096 x i32] }
%struct.Notifier = type { ptr, %struct.anon.1 }
%struct.anon.1 = type { ptr, ptr }
%struct.QemuClipboardPeer = type { ptr, %struct.Notifier, ptr }
%union.anon = type { %struct.QTailQLink }
%struct.QTailQLink = type { ptr, ptr }
%struct.VncZrle = type { i32, %struct.Buffer, %struct.Buffer, %struct.Buffer, %struct.Buffer, %struct.z_stream_s, %struct.VncPalette }
%struct.VncPalette = type { [256 x %struct.VncPaletteEntry], i64, i64, i32, [256 x %struct.anon.0] }
%struct.VncPaletteEntry = type { i32, i32, %struct.anon }
%struct.anon = type { ptr, ptr }
%struct.anon.0 = type { ptr }

; Function Attrs: nounwind sspstrong uwtable
define internal ptr @zrle_convert_fb(ptr noundef %vs, i32 noundef %x, i32 noundef %y, i32 noundef %w, i32 noundef %h, i32 noundef %bpp) #0 {
entry:
  %vs.addr = alloca ptr, align 8
  %x.addr = alloca i32, align 4
  %y.addr = alloca i32, align 4
  %w.addr = alloca i32, align 4
  %h.addr = alloca i32, align 4
  %bpp.addr = alloca i32, align 4
  %tmp = alloca %struct.Buffer, align 8
  store ptr %vs, ptr %vs.addr, align 8
  store i32 %x, ptr %x.addr, align 4
  store i32 %y, ptr %y.addr, align 4
  store i32 %w, ptr %w.addr, align 4
  store i32 %h, ptr %h.addr, align 4
  store i32 %bpp, ptr %bpp.addr, align 4
  %0 = load ptr, ptr %vs.addr, align 8
  %zrle = getelementptr inbounds %struct.VncState, ptr %0, i32 0, i32 48
  %1 = load ptr, ptr %zrle, align 8
  %fb = getelementptr inbounds %struct.VncZrle, ptr %1, i32 0, i32 1
  call void @buffer_reset(ptr noundef %fb)
  %2 = load ptr, ptr %vs.addr, align 8
  %zrle1 = getelementptr inbounds %struct.VncState, ptr %2, i32 0, i32 48
  %3 = load ptr, ptr %zrle1, align 8
  %fb2 = getelementptr inbounds %struct.VncZrle, ptr %3, i32 0, i32 1
  %4 = load i32, ptr %w.addr, align 4
  %5 = load i32, ptr %h.addr, align 4
  %mul = mul i32 %4, %5
  %6 = load i32, ptr %bpp.addr, align 4
  %mul3 = mul i32 %mul, %6
  %7 = load i32, ptr %bpp.addr, align 4
  %add = add i32 %mul3, %7
  %conv = sext i32 %add to i64
  call void @buffer_reserve(ptr noundef %fb2, i64 noundef %conv)
  %8 = load ptr, ptr %vs.addr, align 8
  %output = getelementptr inbounds %struct.VncState, ptr %8, i32 0, i32 31
  call void @llvm.memcpy.p0.p0.i64(ptr align 8 %tmp, ptr align 8 %output, i64 40, i1 false)
  %9 = load ptr, ptr %vs.addr, align 8
  %output4 = getelementptr inbounds %struct.VncState, ptr %9, i32 0, i32 31
  %10 = load ptr, ptr %vs.addr, align 8
  %zrle5 = getelementptr inbounds %struct.VncState, ptr %10, i32 0, i32 48
  %11 = load ptr, ptr %zrle5, align 8
  %fb6 = getelementptr inbounds %struct.VncZrle, ptr %11, i32 0, i32 1
  call void @llvm.memcpy.p0.p0.i64(ptr align 8 %output4, ptr align 8 %fb6, i64 40, i1 false)
  %12 = load ptr, ptr %vs.addr, align 8
  %13 = load i32, ptr %x.addr, align 4
  %14 = load i32, ptr %y.addr, align 4
  %15 = load i32, ptr %w.addr, align 4
  %16 = load i32, ptr %h.addr, align 4
  %call = call i32 @vnc_raw_send_framebuffer_update(ptr noundef %12, i32 noundef %13, i32 noundef %14, i32 noundef %15, i32 noundef %16)
  %17 = load ptr, ptr %vs.addr, align 8
  %zrle7 = getelementptr inbounds %struct.VncState, ptr %17, i32 0, i32 48
  %18 = load ptr, ptr %zrle7, align 8
  %fb8 = getelementptr inbounds %struct.VncZrle, ptr %18, i32 0, i32 1
  %19 = load ptr, ptr %vs.addr, align 8
  %output9 = getelementptr inbounds %struct.VncState, ptr %19, i32 0, i32 31
  call void @llvm.memcpy.p0.p0.i64(ptr align 8 %fb8, ptr align 8 %output9, i64 40, i1 false)
  %20 = load ptr, ptr %vs.addr, align 8
  %output10 = getelementptr inbounds %struct.VncState, ptr %20, i32 0, i32 31
  call void @llvm.memcpy.p0.p0.i64(ptr align 8 %output10, ptr align 8 %tmp, i64 40, i1 false)
  %21 = load ptr, ptr %vs.addr, align 8
  %zrle11 = getelementptr inbounds %struct.VncState, ptr %21, i32 0, i32 48
  %22 = load ptr, ptr %zrle11, align 8
  %fb12 = getelementptr inbounds %struct.VncZrle, ptr %22, i32 0, i32 1
  %buffer = getelementptr inbounds %struct.Buffer, ptr %fb12, i32 0, i32 4
  %23 = load ptr, ptr %buffer, align 8
  ret ptr %23
}

; Function Attrs: nounwind sspstrong uwtable
define internal void @zrle_encode_32be(ptr noundef %vs, i32 noundef %x, i32 noundef %y, i32 noundef %w, i32 noundef %h, i32 noundef %zywrle_level) #0 {
entry:
  %vs.addr = alloca ptr, align 8
  %x.addr = alloca i32, align 4
  %y.addr = alloca i32, align 4
  %w.addr = alloca i32, align 4
  %h.addr = alloca i32, align 4
  %zywrle_level.addr = alloca i32, align 4
  %ty = alloca i32, align 4
  %tx = alloca i32, align 4
  %th = alloca i32, align 4
  %_a24 = alloca i32, align 4
  %_b25 = alloca i32, align 4
  %tmp = alloca i32, align 4
  %tw = alloca i32, align 4
  %buf = alloca ptr, align 8
  %_a26 = alloca i32, align 4
  %_b27 = alloca i32, align 4
  %tmp9 = alloca i32, align 4
  store ptr %vs, ptr %vs.addr, align 8
  store i32 %x, ptr %x.addr, align 4
  store i32 %y, ptr %y.addr, align 4
  store i32 %w, ptr %w.addr, align 4
  store i32 %h, ptr %h.addr, align 4
  store i32 %zywrle_level, ptr %zywrle_level.addr, align 4
  %0 = load i32, ptr %y.addr, align 4
  store i32 %0, ptr %ty, align 4
  br label %for.cond

for.cond:                                         ; preds = %for.inc16, %entry
  %1 = load i32, ptr %ty, align 4
  %2 = load i32, ptr %y.addr, align 4
  %3 = load i32, ptr %h.addr, align 4
  %add = add i32 %2, %3
  %cmp = icmp slt i32 %1, %add
  br i1 %cmp, label %for.body, label %for.end18

for.body:                                         ; preds = %for.cond
  store i32 64, ptr %_a24, align 4
  %4 = load i32, ptr %y.addr, align 4
  %5 = load i32, ptr %h.addr, align 4
  %add1 = add i32 %4, %5
  %6 = load i32, ptr %ty, align 4
  %sub = sub i32 %add1, %6
  store i32 %sub, ptr %_b25, align 4
  %7 = load i32, ptr %_a24, align 4
  %8 = load i32, ptr %_b25, align 4
  %cmp2 = icmp slt i32 %7, %8
  br i1 %cmp2, label %cond.true, label %cond.false

cond.true:                                        ; preds = %for.body
  %9 = load i32, ptr %_a24, align 4
  br label %cond.end

cond.false:                                       ; preds = %for.body
  %10 = load i32, ptr %_b25, align 4
  br label %cond.end

cond.end:                                         ; preds = %cond.false, %cond.true
  %cond = phi i32 [ %9, %cond.true ], [ %10, %cond.false ]
  store i32 %cond, ptr %tmp, align 4
  %11 = load i32, ptr %tmp, align 4
  store i32 %11, ptr %th, align 4
  %12 = load i32, ptr %x.addr, align 4
  store i32 %12, ptr %tx, align 4
  br label %for.cond3

for.cond3:                                        ; preds = %for.inc, %cond.end
  %13 = load i32, ptr %tx, align 4
  %14 = load i32, ptr %x.addr, align 4
  %15 = load i32, ptr %w.addr, align 4
  %add4 = add i32 %14, %15
  %cmp5 = icmp slt i32 %13, %add4
  br i1 %cmp5, label %for.body6, label %for.end

for.body6:                                        ; preds = %for.cond3
  store i32 64, ptr %_a26, align 4
  %16 = load i32, ptr %x.addr, align 4
  %17 = load i32, ptr %w.addr, align 4
  %add7 = add i32 %16, %17
  %18 = load i32, ptr %tx, align 4
  %sub8 = sub i32 %add7, %18
  store i32 %sub8, ptr %_b27, align 4
  %19 = load i32, ptr %_a26, align 4
  %20 = load i32, ptr %_b27, align 4
  %cmp10 = icmp slt i32 %19, %20
  br i1 %cmp10, label %cond.true11, label %cond.false12

cond.true11:                                      ; preds = %for.body6
  %21 = load i32, ptr %_a26, align 4
  br label %cond.end13

cond.false12:                                     ; preds = %for.body6
  %22 = load i32, ptr %_b27, align 4
  br label %cond.end13

cond.end13:                                       ; preds = %cond.false12, %cond.true11
  %cond14 = phi i32 [ %21, %cond.true11 ], [ %22, %cond.false12 ]
  store i32 %cond14, ptr %tmp9, align 4
  %23 = load i32, ptr %tmp9, align 4
  store i32 %23, ptr %tw, align 4
  %24 = load ptr, ptr %vs.addr, align 8
  %25 = load i32, ptr %tx, align 4
  %26 = load i32, ptr %ty, align 4
  %27 = load i32, ptr %tw, align 4
  %28 = load i32, ptr %th, align 4
  %call = call ptr @zrle_convert_fb(ptr noundef %24, i32 noundef %25, i32 noundef %26, i32 noundef %27, i32 noundef %28, i32 noundef 32)
  store ptr %call, ptr %buf, align 8
  %29 = load ptr, ptr %vs.addr, align 8
  %30 = load ptr, ptr %buf, align 8
  %31 = load i32, ptr %tw, align 4
  %32 = load i32, ptr %th, align 4
  %33 = load i32, ptr %zywrle_level.addr, align 4
  call void @zrle_encode_tile32be(ptr noundef %29, ptr noundef %30, i32 noundef %31, i32 noundef %32, i32 noundef %33)
  br label %for.inc

for.inc:                                          ; preds = %cond.end13
  %34 = load i32, ptr %tx, align 4
  %add15 = add i32 %34, 64
  store i32 %add15, ptr %tx, align 4
  br label %for.cond3, !llvm.loop !24

for.end:                                          ; preds = %for.cond3
  br label %for.inc16

for.inc16:                                        ; preds = %for.end
  %35 = load i32, ptr %ty, align 4
  %add17 = add i32 %35, 64
  store i32 %add17, ptr %ty, align 4
  br label %for.cond, !llvm.loop !25

for.end18:                                        ; preds = %for.cond
  ret void
}